target datalayout = "e-m:e-p270:32:32-p271:32:32-p272:64:64-i64:64-i128:128-f80:128-n8:16:32:64-S128"
target triple = "x86_64-pc-linux-gnu"

%struct.VP8Proba = type { [3 x i8], [4 x [8 x %struct.VP8BandProbas]], [4 x [17 x ptr]] }
%struct.VP8BandProbas = type { [3 x [11 x i8]] }
%struct.VP8Decoder = type { i32, i32, ptr, %struct.VP8BitReader, i32, %struct.VP8FrameHeader, %struct.VP8PictureHeader, %struct.VP8FilterHeader, %struct.VP8SegmentHeader, %struct.WebPWorker, i32, i32, i32, %struct.VP8ThreadContext, i32, i32, i32, i32, i32, i32, i32, [8 x %struct.VP8BitReader], i32, %struct.VP8Random, [4 x %struct.VP8QuantMatrix], %struct.VP8Proba, i32, i8, ptr, [4 x i8], ptr, ptr, ptr, ptr, ptr, ptr, ptr, i32, i32, ptr, i64, i32, i32, ptr, i32, [4 x [2 x %struct.VP8FInfo]], ptr, ptr, i64, i32, ptr, ptr, ptr, i32 }
%struct.VP8BitReader = type { i64, i32, i32, ptr, ptr, ptr, i32 }
%struct.VP8FrameHeader = type { i8, i8, i8, i32 }
%struct.VP8PictureHeader = type { i16, i16, i8, i8, i8, i8 }
%struct.VP8FilterHeader = type { i32, i32, i32, i32, [4 x i32], [4 x i32] }
%struct.VP8SegmentHeader = type { i32, i32, i32, [4 x i8], [4 x i8] }
%struct.WebPWorker = type { ptr, i32, ptr, ptr, ptr, i32 }
%struct.VP8ThreadContext = type { i32, i32, i32, ptr, ptr, %struct.VP8Io }
%struct.VP8Io = type { i32, i32, i32, i32, i32, ptr, ptr, ptr, i32, i32, ptr, ptr, ptr, ptr, i32, i64, ptr, i32, i32, i32, i32, i32, i32, i32, i32, i32, ptr }
%struct.VP8Random = type { i32, i32, [55 x i32], i32 }
%struct.VP8QuantMatrix = type { [2 x i32], [2 x i32], [2 x i32], i32, i32 }
%struct.VP8FInfo = type { i8, i8, i8, i8 }

@kBands = internal constant [17 x i8] c"\00\01\02\03\06\04\05\06\06\06\06\06\06\06\06\07\00", align 16

; Function Attrs: nounwind uwtable
define internal i64 @BSwap64(i64 noundef %0) #0 {
  %2 = alloca i64, align 8
  store i64 %0, ptr %2, align 8
  %3 = load i64, ptr %2, align 8
  %4 = call i64 @llvm.bswap.i64(i64 %3)
  ret i64 %4
}

; Function Attrs: nounwind uwtable
define internal i32 @BitsLog2Floor(i32 noundef %0) #0 {
  %2 = alloca i32, align 4
  store i32 %0, ptr %2, align 4
  %3 = load i32, ptr %2, align 4
  %4 = call i32 @llvm.ctlz.i32(i32 %3, i1 true)
  %5 = xor i32 31, %4
  ret i32 %5
}

; Function Attrs: nounwind uwtable
define internal void @VP8LoadNewBytes(ptr noalias noundef %0) #0 {
  %2 = alloca ptr, align 8
  %3 = alloca i64, align 8
  %4 = alloca i64, align 8
  store ptr %0, ptr %2, align 8
  %5 = load ptr, ptr %2, align 8
  %6 = getelementptr inbounds %struct.VP8BitReader, ptr %5, i32 0, i32 3
  %7 = load ptr, ptr %6, align 8
  %8 = load ptr, ptr %2, align 8
  %9 = getelementptr inbounds %struct.VP8BitReader, ptr %8, i32 0, i32 5
  %10 = load ptr, ptr %9, align 8
  %11 = icmp ult ptr %7, %10
  br i1 %11, label %12, label %36

12:                                               ; preds = %1
  %13 = load ptr, ptr %2, align 8
  %14 = getelementptr inbounds %struct.VP8BitReader, ptr %13, i32 0, i32 3
  %15 = load ptr, ptr %14, align 8
  call void @llvm.memcpy.p0.p0.i64(ptr align 8 %4, ptr align 1 %15, i64 8, i1 false)
  %16 = load ptr, ptr %2, align 8
  %17 = getelementptr inbounds %struct.VP8BitReader, ptr %16, i32 0, i32 3
  %18 = load ptr, ptr %17, align 8
  %19 = getelementptr inbounds i8, ptr %18, i64 7
  store ptr %19, ptr %17, align 8
  %20 = load i64, ptr %4, align 8
  %21 = call i64 @BSwap64(i64 noundef %20)
  store i64 %21, ptr %3, align 8
  %22 = load i64, ptr %3, align 8
  %23 = lshr i64 %22, 8
  store i64 %23, ptr %3, align 8
  %24 = load i64, ptr %3, align 8
  %25 = load ptr, ptr %2, align 8
  %26 = getelementptr inbounds %struct.VP8BitReader, ptr %25, i32 0, i32 0
  %27 = load i64, ptr %26, align 8
  %28 = shl i64 %27, 56
  %29 = or i64 %24, %28
  %30 = load ptr, ptr %2, align 8
  %31 = getelementptr inbounds %struct.VP8BitReader, ptr %30, i32 0, i32 0
  store i64 %29, ptr %31, align 8
  %32 = load ptr, ptr %2, align 8
  %33 = getelementptr inbounds %struct.VP8BitReader, ptr %32, i32 0, i32 2
  %34 = load i32, ptr %33, align 4
  %35 = add nsw i32 %34, 56
  store i32 %35, ptr %33, align 4
  br label %38

36:                                               ; preds = %1
  %37 = load ptr, ptr %2, align 8
  call void @VP8LoadFinalBytes(ptr noundef %37)
  br label %38

38:                                               ; preds = %36, %12
  ret void
}

; Function Attrs: nounwind uwtable
define internal i32 @VP8GetBit(ptr noalias noundef %0, i32 noundef %1) #0 {
  %3 = alloca ptr, align 8
  %4 = alloca i32, align 4
  %5 = alloca i32, align 4
  %6 = alloca i32, align 4
  %7 = alloca i32, align 4
  %8 = alloca i32, align 4
  %9 = alloca i32, align 4
  %10 = alloca i32, align 4
  store ptr %0, ptr %3, align 8
  store i32 %1, ptr %4, align 4
  %11 = load ptr, ptr %3, align 8
  %12 = getelementptr inbounds %struct.VP8BitReader, ptr %11, i32 0, i32 1
  %13 = load i32, ptr %12, align 8
  store i32 %13, ptr %5, align 4
  %14 = load ptr, ptr %3, align 8
  %15 = getelementptr inbounds %struct.VP8BitReader, ptr %14, i32 0, i32 2
  %16 = load i32, ptr %15, align 4
  %17 = icmp slt i32 %16, 0
  br i1 %17, label %18, label %20

18:                                               ; preds = %2
  %19 = load ptr, ptr %3, align 8
  call void @VP8LoadNewBytes(ptr noundef %19)
  br label %20

20:                                               ; preds = %18, %2
  %21 = load ptr, ptr %3, align 8
  %22 = getelementptr inbounds %struct.VP8BitReader, ptr %21, i32 0, i32 2
  %23 = load i32, ptr %22, align 4
  store i32 %23, ptr %6, align 4
  %24 = load i32, ptr %5, align 4
  %25 = load i32, ptr %4, align 4
  %26 = mul i32 %24, %25
  %27 = lshr i32 %26, 8
  store i32 %27, ptr %7, align 4
  %28 = load ptr, ptr %3, align 8
  %29 = getelementptr inbounds %struct.VP8BitReader, ptr %28, i32 0, i32 0
  %30 = load i64, ptr %29, align 8
  %31 = load i32, ptr %6, align 4
  %32 = zext i32 %31 to i64
  %33 = lshr i64 %30, %32
  %34 = trunc i64 %33 to i32
  store i32 %34, ptr %8, align 4
  %35 = load i32, ptr %8, align 4
  %36 = load i32, ptr %7, align 4
  %37 = icmp ugt i32 %35, %36
  %38 = zext i1 %37 to i32
  store i32 %38, ptr %9, align 4
  %39 = load i32, ptr %9, align 4
  %40 = icmp ne i32 %39, 0
  br i1 %40, label %41, label %55

41:                                               ; preds = %20
  %42 = load i32, ptr %7, align 4
  %43 = load i32, ptr %5, align 4
  %44 = sub i32 %43, %42
  store i32 %44, ptr %5, align 4
  %45 = load i32, ptr %7, align 4
  %46 = add i32 %45, 1
  %47 = zext i32 %46 to i64
  %48 = load i32, ptr %6, align 4
  %49 = zext i32 %48 to i64
  %50 = shl i64 %47, %49
  %51 = load ptr, ptr %3, align 8
  %52 = getelementptr inbounds %struct.VP8BitReader, ptr %51, i32 0, i32 0
  %53 = load i64, ptr %52, align 8
  %54 = sub i64 %53, %50
  store i64 %54, ptr %52, align 8
  br label %58

55:                                               ; preds = %20
  %56 = load i32, ptr %7, align 4
  %57 = add i32 %56, 1
  store i32 %57, ptr %5, align 4
  br label %58

58:                                               ; preds = %55, %41
  %59 = load i32, ptr %5, align 4
  %60 = call i32 @BitsLog2Floor(i32 noundef %59)
  %61 = xor i32 7, %60
  store i32 %61, ptr %10, align 4
  %62 = load i32, ptr %10, align 4
  %63 = load i32, ptr %5, align 4
  %64 = shl i32 %63, %62
  store i32 %64, ptr %5, align 4
  %65 = load i32, ptr %10, align 4
  %66 = load ptr, ptr %3, align 8
  %67 = getelementptr inbounds %struct.VP8BitReader, ptr %66, i32 0, i32 2
  %68 = load i32, ptr %67, align 4
  %69 = sub nsw i32 %68, %65
  store i32 %69, ptr %67, align 4
  %70 = load i32, ptr %5, align 4
  %71 = sub i32 %70, 1
  %72 = load ptr, ptr %3, align 8
  %73 = getelementptr inbounds %struct.VP8BitReader, ptr %72, i32 0, i32 1
  store i32 %71, ptr %73, align 8
  %74 = load i32, ptr %9, align 4
  ret i32 %74
}

; Function Attrs: nounwind uwtable
define hidden void @VP8ParseProba(ptr noundef %0, ptr noundef %1) #0 {
  %3 = alloca ptr, align 8
  %4 = alloca ptr, align 8
  %5 = alloca ptr, align 8
  %6 = alloca i32, align 4
  %7 = alloca i32, align 4
  %8 = alloca i32, align 4
  %9 = alloca i32, align 4
  %10 = alloca i32, align 4
  store ptr %0, ptr %3, align 8
  store ptr %1, ptr %4, align 8
  %11 = load ptr, ptr %4, align 8
  %12 = getelementptr inbounds %struct.VP8Decoder, ptr %11, i32 0, i32 25
  store ptr %12, ptr %5, align 8
  store i32 0, ptr %6, align 4
  br label %13

13:                                               ; preds = %122, %2
  %14 = load i32, ptr %6, align 4
  %15 = icmp slt i32 %14, 4
  br i1 %15, label %16, label %125

16:                                               ; preds = %13
  store i32 0, ptr %7, align 4
  br label %17

17:                                               ; preds = %91, %16
  %18 = load i32, ptr %7, align 4
  %19 = icmp slt i32 %18, 8
  br i1 %19, label %20, label %94

20:                                               ; preds = %17
  store i32 0, ptr %8, align 4
  br label %21

21:                                               ; preds = %87, %20
  %22 = load i32, ptr %8, align 4
  %23 = icmp slt i32 %22, 3
  br i1 %23, label %24, label %90

24:                                               ; preds = %21
  store i32 0, ptr %9, align 4
  br label %25

25:                                               ; preds = %83, %24
  %26 = load i32, ptr %9, align 4
  %27 = icmp slt i32 %26, 11
  br i1 %27, label %28, label %86

28:                                               ; preds = %25
  %29 = load ptr, ptr %3, align 8
  %30 = load i32, ptr %6, align 4
  %31 = sext i32 %30 to i64
  %32 = getelementptr inbounds [4 x [8 x [3 x [11 x i8]]]], ptr @CoeffsUpdateProba, i64 0, i64 %31
  %33 = load i32, ptr %7, align 4
  %34 = sext i32 %33 to i64
  %35 = getelementptr inbounds [8 x [3 x [11 x i8]]], ptr %32, i64 0, i64 %34
  %36 = load i32, ptr %8, align 4
  %37 = sext i32 %36 to i64
  %38 = getelementptr inbounds [3 x [11 x i8]], ptr %35, i64 0, i64 %37
  %39 = load i32, ptr %9, align 4
  %40 = sext i32 %39 to i64
  %41 = getelementptr inbounds [11 x i8], ptr %38, i64 0, i64 %40
  %42 = load i8, ptr %41, align 1
  %43 = zext i8 %42 to i32
  %44 = call i32 @VP8GetBit(ptr noundef %29, i32 noundef %43)
  %45 = icmp ne i32 %44, 0
  br i1 %45, label %46, label %49

46:                                               ; preds = %28
  %47 = load ptr, ptr %3, align 8
  %48 = call i32 @VP8GetValue(ptr noundef %47, i32 noundef 8)
  br label %64

49:                                               ; preds = %28
  %50 = load i32, ptr %6, align 4
  %51 = sext i32 %50 to i64
  %52 = getelementptr inbounds [4 x [8 x [3 x [11 x i8]]]], ptr @CoeffsProba0, i64 0, i64 %51
  %53 = load i32, ptr %7, align 4
  %54 = sext i32 %53 to i64
  %55 = getelementptr inbounds [8 x [3 x [11 x i8]]], ptr %52, i64 0, i64 %54
  %56 = load i32, ptr %8, align 4
  %57 = sext i32 %56 to i64
  %58 = getelementptr inbounds [3 x [11 x i8]], ptr %55, i64 0, i64 %57
  %59 = load i32, ptr %9, align 4
  %60 = sext i32 %59 to i64
  %61 = getelementptr inbounds [11 x i8], ptr %58, i64 0, i64 %60
  %62 = load i8, ptr %61, align 1
  %63 = zext i8 %62 to i32
  br label %64

64:                                               ; preds = %49, %46
  %65 = phi i32 [ %48, %46 ], [ %63, %49 ]
  store i32 %65, ptr %10, align 4
  %66 = load i32, ptr %10, align 4
  %67 = trunc i32 %66 to i8
  %68 = load ptr, ptr %5, align 8
  %69 = getelementptr inbounds %struct.VP8Proba, ptr %68, i32 0, i32 1
  %70 = load i32, ptr %6, align 4
  %71 = sext i32 %70 to i64
  %72 = getelementptr inbounds [4 x [8 x %struct.VP8BandProbas]], ptr %69, i64 0, i64 %71
  %73 = load i32, ptr %7, align 4
  %74 = sext i32 %73 to i64
  %75 = getelementptr inbounds [8 x %struct.VP8BandProbas], ptr %72, i64 0, i64 %74
  %76 = getelementptr inbounds %struct.VP8BandProbas, ptr %75, i32 0, i32 0
  %77 = load i32, ptr %8, align 4
  %78 = sext i32 %77 to i64
  %79 = getelementptr inbounds [3 x [11 x i8]], ptr %76, i64 0, i64 %78
  %80 = load i32, ptr %9, align 4
  %81 = sext i32 %80 to i64
  %82 = getelementptr inbounds [11 x i8], ptr %79, i64 0, i64 %81
  store i8 %67, ptr %82, align 1
  br label %83

83:                                               ; preds = %64
  %84 = load i32, ptr %9, align 4
  %85 = add nsw i32 %84, 1
  store i32 %85, ptr %9, align 4
  br label %25, !llvm.loop !9

86:                                               ; preds = %25
  br label %87

87:                                               ; preds = %86
  %88 = load i32, ptr %8, align 4
  %89 = add nsw i32 %88, 1
  store i32 %89, ptr %8, align 4
  br label %21, !llvm.loop !10

90:                                               ; preds = %21
  br label %91

91:                                               ; preds = %90
  %92 = load i32, ptr %7, align 4
  %93 = add nsw i32 %92, 1
  store i32 %93, ptr %7, align 4
  br label %17, !llvm.loop !11

94:                                               ; preds = %17
  store i32 0, ptr %7, align 4
  br label %95

95:                                               ; preds = %118, %94
  %96 = load i32, ptr %7, align 4
  %97 = icmp slt i32 %96, 17
  br i1 %97, label %98, label %121

98:                                               ; preds = %95
  %99 = load ptr, ptr %5, align 8
  %100 = getelementptr inbounds %struct.VP8Proba, ptr %99, i32 0, i32 1
  %101 = load i32, ptr %6, align 4
  %102 = sext i32 %101 to i64
  %103 = getelementptr inbounds [4 x [8 x %struct.VP8BandProbas]], ptr %100, i64 0, i64 %102
  %104 = load i32, ptr %7, align 4
  %105 = sext i32 %104 to i64
  %106 = getelementptr inbounds [17 x i8], ptr @kBands, i64 0, i64 %105
  %107 = load i8, ptr %106, align 1
  %108 = zext i8 %107 to i64
  %109 = getelementptr inbounds [8 x %struct.VP8BandProbas], ptr %103, i64 0, i64 %108
  %110 = load ptr, ptr %5, align 8
  %111 = getelementptr inbounds %struct.VP8Proba, ptr %110, i32 0, i32 2
  %112 = load i32, ptr %6, align 4
  %113 = sext i32 %112 to i64
  %114 = getelementptr inbounds [4 x [17 x ptr]], ptr %111, i64 0, i64 %113
  %115 = load i32, ptr %7, align 4
  %116 = sext i32 %115 to i64
  %117 = getelementptr inbounds [17 x ptr], ptr %114, i64 0, i64 %116
  store ptr %109, ptr %117, align 8
  br label %118

118:                                              ; preds = %98
  %119 = load i32, ptr %7, align 4
  %120 = add nsw i32 %119, 1
  store i32 %120, ptr %7, align 4
  br label %95, !llvm.loop !12

121:                                              ; preds = %95
  br label %122

122:                                              ; preds = %121
  %123 = load i32, ptr %6, align 4
  %124 = add nsw i32 %123, 1
  store i32 %124, ptr %6, align 4
  br label %13, !llvm.loop !13

125:                                              ; preds = %13
  %126 = load ptr, ptr %3, align 8
  %127 = call i32 @VP8GetValue(ptr noundef %126, i32 noundef 1)
  %128 = load ptr, ptr %4, align 8
  %129 = getelementptr inbounds %struct.VP8Decoder, ptr %128, i32 0, i32 26
  store i32 %127, ptr %129, align 8
  %130 = load ptr, ptr %4, align 8
  %131 = getelementptr inbounds %struct.VP8Decoder, ptr %130, i32 0, i32 26
  %132 = load i32, ptr %131, align 8
  %133 = icmp ne i32 %132, 0
  br i1 %133, label %134, label %140

134:                                              ; preds = %125
  %135 = load ptr, ptr %3, align 8
  %136 = call i32 @VP8GetValue(ptr noundef %135, i32 noundef 8)
  %137 = trunc i32 %136 to i8
  %138 = load ptr, ptr %4, align 8
  %139 = getelementptr inbounds %struct.VP8Decoder, ptr %138, i32 0, i32 27
  store i8 %137, ptr %139, align 4
  br label %140

140:                                              ; preds = %134, %125
  ret void
}