; Function Attrs: nounwind uwtable
define hidden void @VP8ParseProba(ptr noundef %0, ptr noundef %1) local_unnamed_addr #2 {
  %3 = getelementptr inbounds i8, ptr %0, i64 8
  %4 = getelementptr inbounds i8, ptr %0, i64 12
  %5 = getelementptr inbounds i8, ptr %0, i64 16
  %6 = getelementptr inbounds i8, ptr %0, i64 32
  %7 = getelementptr inbounds i8, ptr %1, i64 1195
  %8 = getelementptr inbounds i8, ptr %1, i64 2256
  br label %.preheader44

.preheader44:                                     ; preds = %2, %65
  %indvars.iv63 = phi i64 [ 0, %2 ], [ %indvars.iv.next64, %65 ]
  br label %.preheader42

.preheader42:                                     ; preds = %.preheader44, %59
  %indvars.iv55 = phi i64 [ 0, %.preheader44 ], [ %indvars.iv.next56, %59 ]
  %9 = getelementptr inbounds [4 x [8 x %struct.VP8BandProbas]], ptr %7, i64 0, i64 %indvars.iv63, i64 %indvars.iv55
  br label %.preheader

.preheader:                                       ; preds = %.preheader42, %58
  %indvars.iv51 = phi i64 [ 0, %.preheader42 ], [ %indvars.iv.next52, %58 ]
  br label %10

10:                                               ; preds = %.preheader, %54
  %indvars.iv = phi i64 [ 0, %.preheader ], [ %indvars.iv.next, %54 ]
  %11 = getelementptr inbounds [4 x [8 x [3 x [11 x i8]]]], ptr @CoeffsUpdateProba, i64 0, i64 %indvars.iv63, i64 %indvars.iv55, i64 %indvars.iv51, i64 %indvars.iv
  %12 = load i8, ptr %11, align 1
  %13 = zext i8 %12 to i32
  tail call void @llvm.experimental.noalias.scope.decl(metadata !100)
  %14 = load i32, ptr %3, align 8, !alias.scope !100
  %15 = load i32, ptr %4, align 4, !alias.scope !100
  %16 = icmp slt i32 %15, 0
  br i1 %16, label %17, label %VP8LoadNewBytes.exit.i

17:                                               ; preds = %10
  tail call void @llvm.experimental.noalias.scope.decl(metadata !103)
  %18 = load ptr, ptr %5, align 8, !alias.scope !106
  %19 = load ptr, ptr %6, align 8, !alias.scope !106
  %20 = icmp ult ptr %18, %19
  br i1 %20, label %21, label %27

21:                                               ; preds = %17
  %.0.copyload.i.i = load i64, ptr %18, align 1, !noalias !106
  %22 = getelementptr inbounds i8, ptr %18, i64 7
  store ptr %22, ptr %5, align 8, !alias.scope !106
  %23 = tail call noundef i64 @llvm.bswap.i64(i64 %.0.copyload.i.i)
  %24 = load i64, ptr %0, align 8, !alias.scope !106
  %25 = tail call i64 @llvm.fshl.i64(i64 %24, i64 %23, i64 56)
  store i64 %25, ptr %0, align 8, !alias.scope !106
  %26 = add nsw i32 %15, 56
  br label %VP8LoadNewBytes.exit.i

27:                                               ; preds = %17
  tail call void @VP8LoadFinalBytes(ptr noundef nonnull %0) #7
  %.pre.i = load i32, ptr %4, align 4, !alias.scope !100
  br label %VP8LoadNewBytes.exit.i

VP8LoadNewBytes.exit.i:                           ; preds = %27, %21, %10
  %28 = phi i32 [ %.pre.i, %27 ], [ %26, %21 ], [ %15, %10 ]
  %29 = mul i32 %14, %13
  %30 = lshr i32 %29, 8
  %31 = load i64, ptr %0, align 8, !alias.scope !100
  %32 = zext i32 %28 to i64
  %33 = lshr i64 %31, %32
  %34 = trunc i64 %33 to i32
  %.not41 = icmp ult i32 %30, %34
  br i1 %.not41, label %35, label %41

35:                                               ; preds = %VP8LoadNewBytes.exit.i
  %36 = sub i32 %14, %30
  %37 = add nuw nsw i32 %30, 1
  %38 = zext nneg i32 %37 to i64
  %39 = shl i64 %38, %32
  %40 = sub i64 %31, %39
  store i64 %40, ptr %0, align 8, !alias.scope !100
  br label %VP8GetBit.exit

41:                                               ; preds = %VP8LoadNewBytes.exit.i
  %42 = add nuw nsw i32 %30, 1
  br label %VP8GetBit.exit

VP8GetBit.exit:                                   ; preds = %35, %41
  %.0.i = phi i32 [ %36, %35 ], [ %42, %41 ]
  %43 = tail call range(i32 0, 33) i32 @llvm.ctlz.i32(i32 %.0.i, i1 true)
  %44 = xor i32 %43, 24
  %45 = shl i32 %.0.i, %44
  %46 = sub nsw i32 %28, %44
  store i32 %46, ptr %4, align 4, !alias.scope !100
  %47 = add i32 %45, -1
  store i32 %47, ptr %3, align 8, !alias.scope !100
  br i1 %.not41, label %48, label %50

48:                                               ; preds = %VP8GetBit.exit
  %49 = tail call i32 @VP8GetValue(ptr noundef nonnull %0, i32 noundef 8) #7
  br label %54

50:                                               ; preds = %VP8GetBit.exit
  %51 = getelementptr inbounds [4 x [8 x [3 x [11 x i8]]]], ptr @CoeffsProba0, i64 0, i64 %indvars.iv63, i64 %indvars.iv55, i64 %indvars.iv51, i64 %indvars.iv
  %52 = load i8, ptr %51, align 1
  %53 = zext i8 %52 to i32
  br label %54

54:                                               ; preds = %50, %48
  %55 = phi i32 [ %49, %48 ], [ %53, %50 ]
  %56 = trunc i32 %55 to i8
  %57 = getelementptr inbounds [3 x [11 x i8]], ptr %9, i64 0, i64 %indvars.iv51, i64 %indvars.iv
  store i8 %56, ptr %57, align 1
  %indvars.iv.next = add nuw nsw i64 %indvars.iv, 1
  %exitcond.not = icmp eq i64 %indvars.iv.next, 11
  br i1 %exitcond.not, label %58, label %10, !llvm.loop !107

58:                                               ; preds = %54
  %indvars.iv.next52 = add nuw nsw i64 %indvars.iv51, 1
  %exitcond54.not = icmp eq i64 %indvars.iv.next52, 3
  br i1 %exitcond54.not, label %59, label %.preheader, !llvm.loop !108

59:                                               ; preds = %58
  %indvars.iv.next56 = add nuw nsw i64 %indvars.iv55, 1
  %exitcond58.not = icmp eq i64 %indvars.iv.next56, 8
  br i1 %exitcond58.not, label %.preheader43, label %.preheader42, !llvm.loop !109

.preheader43:                                     ; preds = %59, %.preheader43
  %indvars.iv59 = phi i64 [ %indvars.iv.next60, %.preheader43 ], [ 0, %59 ]
  %60 = getelementptr inbounds [17 x i8], ptr @kBands, i64 0, i64 %indvars.iv59
  %61 = load i8, ptr %60, align 1
  %62 = zext i8 %61 to i64
  %63 = getelementptr inbounds [4 x [8 x %struct.VP8BandProbas]], ptr %7, i64 0, i64 %indvars.iv63, i64 %62
  %64 = getelementptr inbounds [4 x [17 x ptr]], ptr %8, i64 0, i64 %indvars.iv63, i64 %indvars.iv59
  store ptr %63, ptr %64, align 8
  %indvars.iv.next60 = add nuw nsw i64 %indvars.iv59, 1
  %exitcond62.not = icmp eq i64 %indvars.iv.next60, 17
  br i1 %exitcond62.not, label %65, label %.preheader43, !llvm.loop !110

65:                                               ; preds = %.preheader43
  %indvars.iv.next64 = add nuw nsw i64 %indvars.iv63, 1
  %exitcond66.not = icmp eq i64 %indvars.iv.next64, 4
  br i1 %exitcond66.not, label %66, label %.preheader44, !llvm.loop !111

66:                                               ; preds = %65
  %67 = tail call i32 @VP8GetValue(ptr noundef nonnull %0, i32 noundef 1) #7
  %68 = getelementptr inbounds i8, ptr %1, i64 2800
  store i32 %67, ptr %68, align 8
  %.not = icmp eq i32 %67, 0
  br i1 %.not, label %73, label %69

69:                                               ; preds = %66
  %70 = tail call i32 @VP8GetValue(ptr noundef nonnull %0, i32 noundef 8) #7
  %71 = trunc i32 %70 to i8
  %72 = getelementptr inbounds i8, ptr %1, i64 2804
  store i8 %71, ptr %72, align 4
  br label %73

73:                                               ; preds = %69, %66
  ret void
}